; Function Attrs: nounwind uwtable
define ptr @dt_bauhaus_widget_get_tooltip_markup(ptr noundef %0, i32 noundef %1) local_unnamed_addr #0 {
  %3 = load atomic i64, ptr @dt_bh_get_type.static_g_define_type_id seq_cst, align 8
  %.not.i.i = icmp eq i64 %3, 0
  br i1 %.not.i.i, label %4, label %dt_bh_get_type.exit.i

4:                                                ; preds = %2
  %5 = tail call i32 @g_once_init_enter(ptr noundef nonnull @dt_bh_get_type.static_g_define_type_id) #19
  %.not4.i.i = icmp eq i32 %5, 0
  br i1 %.not4.i.i, label %dt_bh_get_type.exit.i, label %6

6:                                                ; preds = %4
  %7 = tail call fastcc i64 @dt_bh_get_type_once()
  tail call void @g_once_init_leave(ptr noundef nonnull @dt_bh_get_type.static_g_define_type_id, i64 noundef %7) #19
  br label %dt_bh_get_type.exit.i

dt_bh_get_type.exit.i:                            ; preds = %6, %4, %2
  %8 = load i64, ptr @dt_bh_get_type.static_g_define_type_id, align 8, !tbaa !6
  %.not.i = icmp eq ptr %0, null
  br i1 %.not.i, label %.thread, label %9

9:                                                ; preds = %dt_bh_get_type.exit.i
  %10 = load ptr, ptr %0, align 8, !tbaa !200
  %.not10.i = icmp eq ptr %10, null
  br i1 %.not10.i, label %14, label %11

11:                                               ; preds = %9
  %12 = load i64, ptr %10, align 8, !tbaa !201
  %13 = icmp eq i64 %12, %8
  br i1 %13, label %DT_IS_BAUHAUS_WIDGET.exit, label %14

14:                                               ; preds = %11, %9
  %15 = tail call i32 @g_type_check_instance_is_a(ptr noundef nonnull readonly %0, i64 noundef %8) #22
  %16 = icmp ne i32 %15, 0
  br label %DT_IS_BAUHAUS_WIDGET.exit

DT_IS_BAUHAUS_WIDGET.exit:                        ; preds = %11, %14
  %.0.i = phi i1 [ %16, %14 ], [ true, %11 ]
  %17 = icmp eq i32 %1, 1
  %or.cond = and i1 %17, %.0.i
  br i1 %or.cond, label %18, label %.thread

18:                                               ; preds = %DT_IS_BAUHAUS_WIDGET.exit
  %19 = load atomic i64, ptr @dt_bh_get_type.static_g_define_type_id seq_cst, align 8
  %.not.i.i8 = icmp eq i64 %19, 0
  br i1 %.not.i.i8, label %20, label %24

20:                                               ; preds = %18
  %21 = tail call i32 @g_once_init_enter(ptr noundef nonnull @dt_bh_get_type.static_g_define_type_id) #19
  %.not4.i.i10 = icmp eq i32 %21, 0
  br i1 %.not4.i.i10, label %24, label %22

22:                                               ; preds = %20
  %23 = tail call fastcc i64 @dt_bh_get_type_once()
  tail call void @g_once_init_leave(ptr noundef nonnull @dt_bh_get_type.static_g_define_type_id, i64 noundef %23) #19
  br label %24

24:                                               ; preds = %22, %20, %18
  %25 = load i64, ptr @dt_bh_get_type.static_g_define_type_id, align 8, !tbaa !6
  %26 = tail call ptr @g_type_check_instance_cast(ptr noundef nonnull %0, i64 noundef %25) #19
  %27 = getelementptr inbounds nuw i8, ptr %26, i64 352
  %28 = load ptr, ptr %27, align 8, !tbaa !199
  %.not = icmp eq ptr %28, null
  br i1 %.not, label %.thread, label %30

.thread:                                          ; preds = %dt_bh_get_type.exit.i, %DT_IS_BAUHAUS_WIDGET.exit, %24
  %29 = tail call ptr @gtk_widget_get_tooltip_markup(ptr noundef %0) #19
  br label %32

30:                                               ; preds = %24
  %31 = tail call ptr @g_markup_escape_text(ptr noundef nonnull %28, i64 noundef -1) #19
  br label %32

32:                                               ; preds = %30, %.thread
  %.0 = phi ptr [ %31, %30 ], [ %29, %.thread ]
  ret ptr %.0
}